; ModuleID = 'source-C-CXX/59/879.c'
source_filename = "source-C-CXX/59/879.c"
target datalayout = "e-m:e-p270:32:32-p271:32:32-p272:64:64-i64:64-f80:128-n8:16:32:64-S128"
target triple = "x86_64-pc-linux-gnu"

@.str = private unnamed_addr constant [3 x i8] c"%d\00", align 1
@.str.1 = private unnamed_addr constant [7 x i8] c"%d %d\0A\00", align 1
@.str.2 = private unnamed_addr constant [6 x i8] c"empty\00", align 1

; Function Attrs: nofree norecurse nosync nounwind readnone sspstrong uwtable
define dso_local i32 @g(i32 %0) local_unnamed_addr #0 {
  switch i32 %0, label %2 [
    i32 0, label %36
    i32 1, label %9
  ]

2:                                                ; preds = %1
  %3 = icmp slt i32 %0, 1
  br i1 %3, label %36, label %4

4:                                                ; preds = %2
  %5 = and i32 %0, 1
  %6 = icmp eq i32 %0, 1
  br i1 %6, label %26, label %7

7:                                                ; preds = %4
  %8 = and i32 %0, -2
  br label %10

9:                                                ; preds = %1
  br label %36

10:                                               ; preds = %10, %7
  %11 = phi i32 [ 1, %7 ], [ %23, %10 ]
  %12 = phi i32 [ 0, %7 ], [ %22, %10 ]
  %13 = phi i32 [ %8, %7 ], [ %24, %10 ]
  %14 = srem i32 %0, %11
  %15 = icmp eq i32 %14, 0
  %16 = zext i1 %15 to i32
  %17 = add nuw nsw i32 %12, %16
  %18 = add nuw i32 %11, 1
  %19 = srem i32 %0, %18
  %20 = icmp eq i32 %19, 0
  %21 = zext i1 %20 to i32
  %22 = add nuw nsw i32 %17, %21
  %23 = add nuw i32 %11, 2
  %24 = add i32 %13, -2
  %25 = icmp eq i32 %24, 0
  br i1 %25, label %26, label %10, !llvm.loop !5

26:                                               ; preds = %10, %4
  %27 = phi i32 [ undef, %4 ], [ %22, %10 ]
  %28 = phi i32 [ 1, %4 ], [ %23, %10 ]
  %29 = phi i32 [ 0, %4 ], [ %22, %10 ]
  %30 = icmp eq i32 %5, 0
  br i1 %30, label %36, label %31

31:                                               ; preds = %26
  %32 = srem i32 %0, %28
  %33 = icmp eq i32 %32, 0
  %34 = zext i1 %33 to i32
  %35 = add nuw nsw i32 %29, %34
  br label %36

36:                                               ; preds = %31, %26, %2, %1, %9
  %37 = phi i32 [ 1, %9 ], [ %0, %1 ], [ 0, %2 ], [ %27, %26 ], [ %35, %31 ]
  ret i32 %37
}

; Function Attrs: argmemonly mustprogress nofree nosync nounwind willreturn
declare void @llvm.lifetime.start.p0i8(i64 immarg, i8* nocapture) #1

; Function Attrs: argmemonly mustprogress nofree nosync nounwind willreturn
declare void @llvm.lifetime.end.p0i8(i64 immarg, i8* nocapture) #1

; Function Attrs: nofree nounwind sspstrong uwtable
define dso_local i32 @main() local_unnamed_addr #2 {
  %1 = alloca i32, align 4
  %2 = bitcast i32* %1 to i8*
  call void @llvm.lifetime.start.p0i8(i64 4, i8* nonnull %2) #4
  %3 = call i32 (i8*, ...) @__isoc99_scanf(i8* getelementptr inbounds ([3 x i8], [3 x i8]* @.str, i64 0, i64 0), i32* nonnull %1)
  %4 = load i32, i32* %1, align 4, !tbaa !7
  %5 = icmp slt i32 %4, 5
  br i1 %5, label %90, label %6

6:                                                ; preds = %0, %83
  %7 = phi i32 [ %88, %83 ], [ 0, %0 ]
  %8 = phi i32 [ %84, %83 ], [ %4, %0 ]
  %9 = phi i32 [ %85, %83 ], [ 3, %0 ]
  %10 = add i32 %7, 5
  %11 = add i32 %7, 3
  %12 = and i32 %11, 1
  %13 = icmp eq i32 %7, -2
  br i1 %13, label %32, label %14

14:                                               ; preds = %6
  %15 = and i32 %11, -2
  br label %16

16:                                               ; preds = %16, %14
  %17 = phi i32 [ 1, %14 ], [ %29, %16 ]
  %18 = phi i32 [ 0, %14 ], [ %28, %16 ]
  %19 = phi i32 [ %15, %14 ], [ %30, %16 ]
  %20 = urem i32 %9, %17
  %21 = icmp eq i32 %20, 0
  %22 = zext i1 %21 to i32
  %23 = add nuw nsw i32 %18, %22
  %24 = add nuw i32 %17, 1
  %25 = urem i32 %9, %24
  %26 = icmp eq i32 %25, 0
  %27 = zext i1 %26 to i32
  %28 = add nuw nsw i32 %23, %27
  %29 = add nuw i32 %17, 2
  %30 = add i32 %19, -2
  %31 = icmp eq i32 %30, 0
  br i1 %31, label %32, label %16, !llvm.loop !5

32:                                               ; preds = %16, %6
  %33 = phi i32 [ undef, %6 ], [ %28, %16 ]
  %34 = phi i32 [ 1, %6 ], [ %29, %16 ]
  %35 = phi i32 [ 0, %6 ], [ %28, %16 ]
  %36 = icmp eq i32 %12, 0
  br i1 %36, label %42, label %37

37:                                               ; preds = %32
  %38 = urem i32 %9, %34
  %39 = icmp eq i32 %38, 0
  %40 = zext i1 %39 to i32
  %41 = add nuw nsw i32 %35, %40
  br label %42

42:                                               ; preds = %32, %37
  %43 = phi i32 [ %33, %32 ], [ %41, %37 ]
  %44 = icmp eq i32 %43, 2
  br i1 %44, label %45, label %83

45:                                               ; preds = %42
  %46 = add nuw nsw i32 %9, 2
  %47 = and i32 %10, 1
  %48 = icmp eq i32 %7, -4
  br i1 %48, label %67, label %49

49:                                               ; preds = %45
  %50 = and i32 %10, -2
  br label %51

51:                                               ; preds = %51, %49
  %52 = phi i32 [ 1, %49 ], [ %64, %51 ]
  %53 = phi i32 [ 0, %49 ], [ %63, %51 ]
  %54 = phi i32 [ %50, %49 ], [ %65, %51 ]
  %55 = srem i32 %46, %52
  %56 = icmp eq i32 %55, 0
  %57 = zext i1 %56 to i32
  %58 = add nuw nsw i32 %53, %57
  %59 = add nuw i32 %52, 1
  %60 = srem i32 %46, %59
  %61 = icmp eq i32 %60, 0
  %62 = zext i1 %61 to i32
  %63 = add nuw nsw i32 %58, %62
  %64 = add nuw i32 %52, 2
  %65 = add i32 %54, -2
  %66 = icmp eq i32 %65, 0
  br i1 %66, label %67, label %51, !llvm.loop !5

67:                                               ; preds = %51, %45
  %68 = phi i32 [ undef, %45 ], [ %63, %51 ]
  %69 = phi i32 [ 1, %45 ], [ %64, %51 ]
  %70 = phi i32 [ 0, %45 ], [ %63, %51 ]
  %71 = icmp eq i32 %47, 0
  br i1 %71, label %77, label %72

72:                                               ; preds = %67
  %73 = srem i32 %46, %69
  %74 = icmp eq i32 %73, 0
  %75 = zext i1 %74 to i32
  %76 = add nuw nsw i32 %70, %75
  br label %77

77:                                               ; preds = %67, %72
  %78 = phi i32 [ %68, %67 ], [ %76, %72 ]
  %79 = icmp eq i32 %78, 2
  br i1 %79, label %80, label %83

80:                                               ; preds = %77
  %81 = call i32 (i8*, ...) @printf(i8* nonnull dereferenceable(1) getelementptr inbounds ([7 x i8], [7 x i8]* @.str.1, i64 0, i64 0), i32 %9, i32 %46)
  %82 = load i32, i32* %1, align 4, !tbaa !7
  br label %83

83:                                               ; preds = %80, %77, %42
  %84 = phi i32 [ %82, %80 ], [ %8, %77 ], [ %8, %42 ]
  %85 = add nuw nsw i32 %9, 1
  %86 = add nsw i32 %84, -2
  %87 = icmp slt i32 %9, %86
  %88 = add i32 %7, 1
  br i1 %87, label %6, label %89, !llvm.loop !11

89:                                               ; preds = %83
  br i1 %5, label %90, label %92

90:                                               ; preds = %0, %89
  %91 = call i32 (i8*, ...) @printf(i8* nonnull dereferenceable(1) getelementptr inbounds ([6 x i8], [6 x i8]* @.str.2, i64 0, i64 0))
  br label %92

92:                                               ; preds = %90, %89
  call void @llvm.lifetime.end.p0i8(i64 4, i8* nonnull %2) #4
  ret i32 0
}

; Function Attrs: nofree nounwind
declare noundef i32 @__isoc99_scanf(i8* nocapture noundef readonly, ...) local_unnamed_addr #3

; Function Attrs: nofree nounwind
declare noundef i32 @printf(i8* nocapture noundef readonly, ...) local_unnamed_addr #3


!llvm.module.flags = !{!0, !1, !2, !3}
!llvm.ident = !{!4}

!0 = !{i32 1, !"wchar_size", i32 4}
!1 = !{i32 7, !"PIC Level", i32 2}
!2 = !{i32 7, !"PIE Level", i32 2}
!3 = !{i32 7, !"uwtable", i32 1}
!4 = !{!"clang version 13.0.0"}
!5 = distinct !{!5, !6}
!6 = !{!"llvm.loop.mustprogress"}
!7 = !{!8, !8, i64 0}
!8 = !{!"int", !9, i64 0}
!9 = !{!"omnipotent char", !10, i64 0}
!10 = !{!"Simple C/C++ TBAA"}
!11 = distinct !{!11, !6}
